target datalayout = "e-m:e-p270:32:32-p271:32:32-p272:64:64-i64:64-i128:128-f80:128-n8:16:32:64-S128"
target triple = "x86_64-pc-linux-gnu"

%struct._expr = type { i32, %union.anon, i32, i32, i32, i32 }
%union.anon = type { %struct.anon.1 }
%struct.anon.1 = type { ptr, i32, ptr }
%struct._object = type { %union.anon.26, ptr }
%union.anon.26 = type { i64 }
%struct.PyVarObject = type { %struct._object, i64 }
%struct.PyCompilerFlags = type { i32, i32 }
%struct.anon.19 = type { ptr, ptr, i32 }
%struct.anon.22 = type { ptr, i32 }
%struct._PyCompiler = type { ptr, ptr, %struct._PyFutureFeatures, %struct.PyCompilerFlags, i32, i32, ptr, ptr, ptr, i8 }
%struct._PyFutureFeatures = type { i32, %struct._Py_SourceLocation }
%struct._Py_SourceLocation = type { i32, i32, i32, i32 }
%struct.PyListObject = type { %struct.PyVarObject, ptr, i64 }
%struct.compiler_unit = type { ptr, i32, ptr, ptr, ptr, ptr, i32, i32, [21 x %struct._PyCompile_FBlockInfo], %struct._PyCompile_CodeUnitMetadata }
%struct._PyCompile_FBlockInfo = type { i32, %struct._PyJumpTargetLabel, %struct._Py_SourceLocation, %struct._PyJumpTargetLabel, ptr }
%struct._PyJumpTargetLabel = type { i32 }
%struct._PyCompile_CodeUnitMetadata = type { ptr, ptr, ptr, ptr, ptr, ptr, ptr, ptr, i64, i64, i64, i32 }

@.str = private unnamed_addr constant [5 x i8] c"self\00", align 1
@.str.1 = private unnamed_addr constant [24 x i8] c"compile.c compiler unit\00", align 1

; Function Attrs: inlinehint nounwind uwtable
define internal i64 @Py_SIZE(ptr noundef %0) #3 {
  %2 = alloca ptr, align 8
  store ptr %0, ptr %2, align 8, !tbaa !32
  %3 = load ptr, ptr %2, align 8, !tbaa !32
  %4 = getelementptr inbounds nuw %struct.PyVarObject, ptr %3, i32 0, i32 1
  %5 = load i64, ptr %4, align 8, !tbaa !152
  ret i64 %5
}

; Function Attrs: inlinehint nounwind uwtable
define internal i64 @PyList_GET_SIZE(ptr noundef %0) #3 {
  %2 = alloca ptr, align 8
  %3 = alloca ptr, align 8
  store ptr %0, ptr %2, align 8, !tbaa !32
  call void @llvm.lifetime.start.p0(i64 8, ptr %3) #8
  %4 = load ptr, ptr %2, align 8, !tbaa !32
  store ptr %4, ptr %3, align 8, !tbaa !42
  %5 = load ptr, ptr %3, align 8, !tbaa !42
  %6 = call i64 @Py_SIZE(ptr noundef %5)
  call void @llvm.lifetime.end.p0(i64 8, ptr %3) #8
  ret i64 %6
}

; Function Attrs: nounwind uwtable
define hidden i32 @_PyCompile_MaybeAddStaticAttributeToClass(ptr noundef %0, ptr noundef %1) #0 {
  %3 = alloca i32, align 4
  %4 = alloca ptr, align 8
  %5 = alloca ptr, align 8
  %6 = alloca ptr, align 8
  %7 = alloca i32, align 4
  %8 = alloca i64, align 8
  %9 = alloca i64, align 8
  %10 = alloca ptr, align 8
  %11 = alloca ptr, align 8
  store ptr %0, ptr %4, align 8, !tbaa !4
  store ptr %1, ptr %5, align 8, !tbaa !9
  call void @llvm.lifetime.start.p0(i64 8, ptr %6) #8
  %12 = load ptr, ptr %5, align 8, !tbaa !9
  %13 = getelementptr inbounds nuw %struct._expr, ptr %12, i32 0, i32 1
  %14 = getelementptr inbounds nuw %struct.anon.19, ptr %13, i32 0, i32 0
  %15 = load ptr, ptr %14, align 8, !tbaa !11
  store ptr %15, ptr %6, align 8, !tbaa !9
  %16 = load ptr, ptr %6, align 8, !tbaa !9
  %17 = getelementptr inbounds nuw %struct._expr, ptr %16, i32 0, i32 0
  %18 = load i32, ptr %17, align 8, !tbaa !12
  %19 = icmp ne i32 %18, 24
  br i1 %19, label %33, label %20

20:                                               ; preds = %2
  %21 = load ptr, ptr %5, align 8, !tbaa !9
  %22 = getelementptr inbounds nuw %struct._expr, ptr %21, i32 0, i32 1
  %23 = getelementptr inbounds nuw %struct.anon.19, ptr %22, i32 0, i32 2
  %24 = load i32, ptr %23, align 8, !tbaa !11
  %25 = icmp ne i32 %24, 2
  br i1 %25, label %33, label %26

26:                                               ; preds = %20
  %27 = load ptr, ptr %6, align 8, !tbaa !9
  %28 = getelementptr inbounds nuw %struct._expr, ptr %27, i32 0, i32 1
  %29 = getelementptr inbounds nuw %struct.anon.22, ptr %28, i32 0, i32 0
  %30 = load ptr, ptr %29, align 8, !tbaa !11
  %31 = call i32 @_PyUnicode_EqualToASCIIString(ptr noundef %30, ptr noundef @.str)
  %32 = icmp ne i32 %31, 0
  br i1 %32, label %34, label %33

33:                                               ; preds = %26, %20, %2
  store i32 0, ptr %3, align 4
  store i32 1, ptr %7, align 4
  br label %86

34:                                               ; preds = %26
  call void @llvm.lifetime.start.p0(i64 8, ptr %8) #8
  %35 = load ptr, ptr %4, align 8, !tbaa !4
  %36 = getelementptr inbounds nuw %struct._PyCompiler, ptr %35, i32 0, i32 8
  %37 = load ptr, ptr %36, align 8, !tbaa !15
  %38 = call i64 @PyList_GET_SIZE(ptr noundef %37)
  store i64 %38, ptr %8, align 8, !tbaa !24
  call void @llvm.lifetime.start.p0(i64 8, ptr %9) #8
  %39 = load i64, ptr %8, align 8, !tbaa !24
  %40 = sub i64 %39, 1
  store i64 %40, ptr %9, align 8, !tbaa !24
  br label %41

41:                                               ; preds = %79, %34
  %42 = load i64, ptr %9, align 8, !tbaa !24
  %43 = icmp sge i64 %42, 0
  br i1 %43, label %45, label %44

44:                                               ; preds = %41
  store i32 2, ptr %7, align 4
  br label %82

45:                                               ; preds = %41
  call void @llvm.lifetime.start.p0(i64 8, ptr %10) #8
  %46 = load ptr, ptr %4, align 8, !tbaa !4
  %47 = getelementptr inbounds nuw %struct._PyCompiler, ptr %46, i32 0, i32 8
  %48 = load ptr, ptr %47, align 8, !tbaa !15
  %49 = getelementptr inbounds nuw %struct.PyListObject, ptr %48, i32 0, i32 1
  %50 = load ptr, ptr %49, align 8, !tbaa !26
  %51 = load i64, ptr %9, align 8, !tbaa !24
  %52 = getelementptr ptr, ptr %50, i64 %51
  %53 = load ptr, ptr %52, align 8, !tbaa !32
  store ptr %53, ptr %10, align 8, !tbaa !32
  call void @llvm.lifetime.start.p0(i64 8, ptr %11) #8
  %54 = load ptr, ptr %10, align 8, !tbaa !32
  %55 = call ptr @PyCapsule_GetPointer(ptr noundef %54, ptr noundef @.str.1)
  store ptr %55, ptr %11, align 8, !tbaa !33
  %56 = load ptr, ptr %11, align 8, !tbaa !33
  %57 = getelementptr inbounds nuw %struct.compiler_unit, ptr %56, i32 0, i32 1
  %58 = load i32, ptr %57, align 8, !tbaa !34
  %59 = icmp eq i32 %58, 1
  br i1 %59, label %60, label %75

60:                                               ; preds = %45
  br label %61

61:                                               ; preds = %60
  %62 = load ptr, ptr %11, align 8, !tbaa !33
  %63 = getelementptr inbounds nuw %struct.compiler_unit, ptr %62, i32 0, i32 3
  %64 = load ptr, ptr %63, align 8, !tbaa !39
  %65 = load ptr, ptr %5, align 8, !tbaa !9
  %66 = getelementptr inbounds nuw %struct._expr, ptr %65, i32 0, i32 1
  %67 = getelementptr inbounds nuw %struct.anon.19, ptr %66, i32 0, i32 1
  %68 = load ptr, ptr %67, align 8, !tbaa !11
  %69 = call i32 @PySet_Add(ptr noundef %64, ptr noundef %68)
  %70 = icmp eq i32 %69, -1
  br i1 %70, label %71, label %72

71:                                               ; preds = %61
  store i32 -1, ptr %3, align 4
  store i32 1, ptr %7, align 4
  br label %76

72:                                               ; preds = %61
  br label %73

73:                                               ; preds = %72
  br label %74

74:                                               ; preds = %73
  store i32 2, ptr %7, align 4
  br label %76

75:                                               ; preds = %45
  store i32 0, ptr %7, align 4
  br label %76

76:                                               ; preds = %75, %74, %71
  call void @llvm.lifetime.end.p0(i64 8, ptr %11) #8
  call void @llvm.lifetime.end.p0(i64 8, ptr %10) #8
  %77 = load i32, ptr %7, align 4
  switch i32 %77, label %82 [
    i32 0, label %78
  ]

78:                                               ; preds = %76
  br label %79

79:                                               ; preds = %78
  %80 = load i64, ptr %9, align 8, !tbaa !24
  %81 = add i64 %80, -1
  store i64 %81, ptr %9, align 8, !tbaa !24
  br label %41, !llvm.loop !40

82:                                               ; preds = %76, %44
  call void @llvm.lifetime.end.p0(i64 8, ptr %9) #8
  %83 = load i32, ptr %7, align 4
  switch i32 %83, label %85 [
    i32 2, label %84
  ]

84:                                               ; preds = %82
  store i32 0, ptr %3, align 4
  store i32 1, ptr %7, align 4
  br label %85

85:                                               ; preds = %84, %82
  call void @llvm.lifetime.end.p0(i64 8, ptr %8) #8
  br label %86

86:                                               ; preds = %85, %33
  call void @llvm.lifetime.end.p0(i64 8, ptr %6) #8
  %87 = load i32, ptr %3, align 4
  ret i32 %87
}