; Function Attrs: nounwind uwtable
define hidden range(i32 -1, 1) i32 @_PyCompile_MaybeAddStaticAttributeToClass(ptr noundef readonly captures(none) %0, ptr noundef readonly captures(none) %1) local_unnamed_addr #0 {
  %3 = getelementptr inbounds nuw i8, ptr %1, i64 8
  %4 = load ptr, ptr %3, align 8, !tbaa !4
  %5 = load i32, ptr %4, align 8, !tbaa !7
  %.not = icmp eq i32 %5, 24
  br i1 %.not, label %6, label %34

6:                                                ; preds = %2
  %7 = getelementptr inbounds nuw i8, ptr %1, i64 24
  %8 = load i32, ptr %7, align 8, !tbaa !4
  %.not20 = icmp eq i32 %8, 2
  br i1 %.not20, label %9, label %34

9:                                                ; preds = %6
  %10 = getelementptr inbounds nuw i8, ptr %4, i64 8
  %11 = load ptr, ptr %10, align 8, !tbaa !4
  %12 = tail call i32 @_PyUnicode_EqualToASCIIString(ptr noundef %11, ptr noundef nonnull @.str) #11
  %.not21 = icmp eq i32 %12, 0
  br i1 %.not21, label %34, label %13

13:                                               ; preds = %9
  %14 = getelementptr inbounds nuw i8, ptr %0, i64 72
  %15 = load ptr, ptr %14, align 8, !tbaa !10
  %16 = getelementptr i8, ptr %15, i64 16
  %.val = load i64, ptr %16, align 8, !tbaa !20
  br label %17

17:                                               ; preds = %19, %13
  %.019.in = phi i64 [ %.val, %13 ], [ %.019, %19 ]
  %.019 = add i64 %.019.in, -1
  %18 = icmp sgt i64 %.019, -1
  br i1 %18, label %19, label %.thread24

19:                                               ; preds = %17
  %20 = load ptr, ptr %14, align 8, !tbaa !10
  %21 = getelementptr inbounds nuw i8, ptr %20, i64 24
  %22 = load ptr, ptr %21, align 8, !tbaa !25
  %23 = getelementptr ptr, ptr %22, i64 %.019
  %24 = load ptr, ptr %23, align 8, !tbaa !28
  %25 = tail call ptr @PyCapsule_GetPointer(ptr noundef %24, ptr noundef nonnull @.str.1) #11
  %26 = getelementptr inbounds nuw i8, ptr %25, i64 8
  %27 = load i32, ptr %26, align 8, !tbaa !29
  %.not22 = icmp eq i32 %27, 1
  br i1 %.not22, label %28, label %17, !llvm.loop !34

28:                                               ; preds = %19
  %29 = getelementptr inbounds nuw i8, ptr %25, i64 24
  %30 = load ptr, ptr %29, align 8, !tbaa !36
  %31 = getelementptr inbounds nuw i8, ptr %1, i64 16
  %32 = load ptr, ptr %31, align 8, !tbaa !4
  %33 = tail call i32 @PySet_Add(ptr noundef %30, ptr noundef %32) #11
  %.fr = freeze i32 %33
  %.not28 = icmp eq i32 %.fr, -1
  br i1 %.not28, label %34, label %.thread24

.thread24:                                        ; preds = %17, %28
  br label %34

34:                                               ; preds = %.thread24, %28, %2, %6, %9
  %.0 = phi i32 [ 0, %9 ], [ 0, %6 ], [ 0, %2 ], [ 0, %.thread24 ], [ -1, %28 ]
  ret i32 %.0
}